; Function Attrs: mustprogress uwtable
define void @_ZN3net20QuicUnackedPacketMap24RemoveRetransmittabilityEPNS_16TransmissionInfoE(ptr noundef nonnull align 8 captures(none) dereferenceable(120) %0, ptr noundef %1) local_unnamed_addr #0 align 2 personality ptr @__gxx_personality_v0 {
  %3 = getelementptr inbounds nuw i8, ptr %1, i64 48
  %4 = load i64, ptr %3, align 8, !tbaa !104
  %.not6 = icmp eq i64 %4, 0
  br i1 %.not6, label %._crit_edge, label %.lr.ph

.lr.ph:                                           ; preds = %2
  %5 = getelementptr inbounds nuw i8, ptr %0, i64 96
  %6 = load i64, ptr %5, align 8, !tbaa !3
  %7 = getelementptr inbounds nuw i8, ptr %0, i64 32
  %8 = load ptr, ptr %7, align 8, !tbaa !16, !noalias !113
  %9 = getelementptr inbounds nuw i8, ptr %0, i64 40
  %10 = load ptr, ptr %9, align 8, !tbaa !34, !noalias !113
  %11 = getelementptr inbounds nuw i8, ptr %0, i64 56
  %12 = load ptr, ptr %11, align 8, !tbaa !23, !noalias !113
  %13 = ptrtoint ptr %8 to i64
  %14 = ptrtoint ptr %10 to i64
  %15 = sub i64 %13, %14
  %16 = sdiv exact i64 %15, 80
  br label %17

17:                                               ; preds = %.lr.ph, %_ZNSt5dequeIN3net16TransmissionInfoESaIS1_EEixEm.exit
  %18 = phi i64 [ %4, %.lr.ph ], [ %40, %_ZNSt5dequeIN3net16TransmissionInfoESaIS1_EEixEm.exit ]
  %19 = phi ptr [ %3, %.lr.ph ], [ %39, %_ZNSt5dequeIN3net16TransmissionInfoESaIS1_EEixEm.exit ]
  store i64 0, ptr %19, align 8, !tbaa !104
  %20 = sub i64 %18, %6
  %21 = add nsw i64 %16, %20
  %22 = icmp sgt i64 %21, -1
  br i1 %22, label %23, label %29

23:                                               ; preds = %17
  %24 = icmp samesign ult i64 %21, 6
  br i1 %24, label %25, label %27

25:                                               ; preds = %23
  %26 = getelementptr inbounds %"struct.net::TransmissionInfo", ptr %8, i64 %20
  br label %_ZNSt5dequeIN3net16TransmissionInfoESaIS1_EEixEm.exit

27:                                               ; preds = %23
  %28 = udiv i64 %21, 6
  br label %33

29:                                               ; preds = %17
  %30 = xor i64 %21, -1
  %31 = udiv i64 %30, 6
  %32 = xor i64 %31, -1
  br label %33

33:                                               ; preds = %29, %27
  %34 = phi i64 [ %28, %27 ], [ %32, %29 ]
  %35 = getelementptr inbounds ptr, ptr %12, i64 %34
  %36 = load ptr, ptr %35, align 8, !tbaa !25, !noalias !113
  %.idx.i.i.i.i = mul i64 %34, -480
  %37 = getelementptr i8, ptr %36, i64 %.idx.i.i.i.i
  %38 = getelementptr %"struct.net::TransmissionInfo", ptr %37, i64 %21
  br label %_ZNSt5dequeIN3net16TransmissionInfoESaIS1_EEixEm.exit

_ZNSt5dequeIN3net16TransmissionInfoESaIS1_EEixEm.exit: ; preds = %25, %33
  %storemerge.i.i.i.i = phi ptr [ %38, %33 ], [ %26, %25 ]
  %39 = getelementptr inbounds nuw i8, ptr %storemerge.i.i.i.i, i64 48
  %40 = load i64, ptr %39, align 8, !tbaa !104
  %.not = icmp eq i64 %40, 0
  br i1 %.not, label %._crit_edge, label %17, !llvm.loop !116

._crit_edge:                                      ; preds = %_ZNSt5dequeIN3net16TransmissionInfoESaIS1_EEixEm.exit, %2
  %.0.lcssa = phi ptr [ %1, %2 ], [ %storemerge.i.i.i.i, %_ZNSt5dequeIN3net16TransmissionInfoESaIS1_EEixEm.exit ]
  %41 = getelementptr inbounds nuw i8, ptr %.0.lcssa, i64 43
  %42 = load i8, ptr %41, align 1, !tbaa !93, !range !94, !noundef !95
  %43 = trunc nuw i8 %42 to i1
  br i1 %43, label %44, label %_ZN3net20QuicUnackedPacketMap32MaybeRemoveRetransmittableFramesEPNS_16TransmissionInfoE.exit

44:                                               ; preds = %._crit_edge
  %45 = getelementptr inbounds nuw i8, ptr %0, i64 112
  %46 = load i64, ptr %45, align 8, !tbaa !78
  %47 = add i64 %46, -1
  store i64 %47, ptr %45, align 8, !tbaa !78
  store i8 0, ptr %41, align 1, !tbaa !93
  br label %_ZN3net20QuicUnackedPacketMap32MaybeRemoveRetransmittableFramesEPNS_16TransmissionInfoE.exit

_ZN3net20QuicUnackedPacketMap32MaybeRemoveRetransmittableFramesEPNS_16TransmissionInfoE.exit: ; preds = %._crit_edge, %44
  tail call void @_ZN3net9QuicUtils12DeleteFramesEPSt6vectorINS_9QuicFrameESaIS2_EE(ptr noundef nonnull %.0.lcssa)
  ret void
}